
shellcode_INJECTION_simulation:     file format elf64-x86-64
shellcode_INJECTION_simulation
architecture: i386:x86-64, flags 0x00000150:
HAS_SYMS, DYNAMIC, D_PAGED
start address 0x0000000000001100

Program Header:
    PHDR off    0x0000000000000040 vaddr 0x0000000000000040 paddr 0x0000000000000040 align 2**3
         filesz 0x00000000000002d8 memsz 0x00000000000002d8 flags r--
  INTERP off    0x0000000000000318 vaddr 0x0000000000000318 paddr 0x0000000000000318 align 2**0
         filesz 0x000000000000001c memsz 0x000000000000001c flags r--
    LOAD off    0x0000000000000000 vaddr 0x0000000000000000 paddr 0x0000000000000000 align 2**12
         filesz 0x0000000000000768 memsz 0x0000000000000768 flags r--
    LOAD off    0x0000000000001000 vaddr 0x0000000000001000 paddr 0x0000000000001000 align 2**12
         filesz 0x0000000000000381 memsz 0x0000000000000381 flags r-x
    LOAD off    0x0000000000002000 vaddr 0x0000000000002000 paddr 0x0000000000002000 align 2**12
         filesz 0x0000000000000168 memsz 0x0000000000000168 flags r--
    LOAD off    0x0000000000002d90 vaddr 0x0000000000003d90 paddr 0x0000000000003d90 align 2**12
         filesz 0x0000000000000280 memsz 0x0000000000000288 flags rw-
 DYNAMIC off    0x0000000000002da0 vaddr 0x0000000000003da0 paddr 0x0000000000003da0 align 2**3
         filesz 0x00000000000001f0 memsz 0x00000000000001f0 flags rw-
    NOTE off    0x0000000000000338 vaddr 0x0000000000000338 paddr 0x0000000000000338 align 2**3
         filesz 0x0000000000000030 memsz 0x0000000000000030 flags r--
    NOTE off    0x0000000000000368 vaddr 0x0000000000000368 paddr 0x0000000000000368 align 2**2
         filesz 0x0000000000000044 memsz 0x0000000000000044 flags r--
0x6474e553 off    0x0000000000000338 vaddr 0x0000000000000338 paddr 0x0000000000000338 align 2**3
         filesz 0x0000000000000030 memsz 0x0000000000000030 flags r--
EH_FRAME off    0x0000000000002058 vaddr 0x0000000000002058 paddr 0x0000000000002058 align 2**2
         filesz 0x000000000000003c memsz 0x000000000000003c flags r--
   STACK off    0x0000000000000000 vaddr 0x0000000000000000 paddr 0x0000000000000000 align 2**4
         filesz 0x0000000000000000 memsz 0x0000000000000000 flags rw-
   RELRO off    0x0000000000002d90 vaddr 0x0000000000003d90 paddr 0x0000000000003d90 align 2**0
         filesz 0x0000000000000270 memsz 0x0000000000000270 flags r--

Dynamic Section:
  NEEDED               libc.so.6
  INIT                 0x0000000000001000
  FINI                 0x0000000000001374
  INIT_ARRAY           0x0000000000003d90
  INIT_ARRAYSZ         0x0000000000000008
  FINI_ARRAY           0x0000000000003d98
  FINI_ARRAYSZ         0x0000000000000008
  GNU_HASH             0x00000000000003b0
  STRTAB               0x00000000000004f8
  SYMTAB               0x00000000000003d8
  STRSZ                0x00000000000000c4
  SYMENT               0x0000000000000018
  DEBUG                0x0000000000000000
  PLTGOT               0x0000000000003f90
  PLTRELSZ             0x0000000000000090
  PLTREL               0x0000000000000007
  JMPREL               0x00000000000006d8
  RELA                 0x0000000000000618
  RELASZ               0x00000000000000c0
  RELAENT              0x0000000000000018
  FLAGS                0x0000000000000008
  FLAGS_1              0x0000000008000001
  VERNEED              0x00000000000005d8
  VERNEEDNUM           0x0000000000000001
  VERSYM               0x00000000000005bc
  RELACOUNT            0x0000000000000003

Version References:
  required from libc.so.6:
    0x0d696914 0x00 04 GLIBC_2.4
    0x09691a75 0x00 03 GLIBC_2.2.5
    0x069691b4 0x00 02 GLIBC_2.34

Sections:
Idx Name          Size      VMA               LMA               File off  Algn
  0 .interp       0000001c  0000000000000318  0000000000000318  00000318  2**0
                  CONTENTS, ALLOC, LOAD, READONLY, DATA
  1 .note.gnu.property 00000030  0000000000000338  0000000000000338  00000338  2**3
                  CONTENTS, ALLOC, LOAD, READONLY, DATA
  2 .note.gnu.build-id 00000024  0000000000000368  0000000000000368  00000368  2**2
                  CONTENTS, ALLOC, LOAD, READONLY, DATA
  3 .note.ABI-tag 00000020  000000000000038c  000000000000038c  0000038c  2**2
                  CONTENTS, ALLOC, LOAD, READONLY, DATA
  4 .gnu.hash     00000024  00000000000003b0  00000000000003b0  000003b0  2**3
                  CONTENTS, ALLOC, LOAD, READONLY, DATA
  5 .dynsym       00000120  00000000000003d8  00000000000003d8  000003d8  2**3
                  CONTENTS, ALLOC, LOAD, READONLY, DATA
  6 .dynstr       000000c4  00000000000004f8  00000000000004f8  000004f8  2**0
                  CONTENTS, ALLOC, LOAD, READONLY, DATA
  7 .gnu.version  00000018  00000000000005bc  00000000000005bc  000005bc  2**1
                  CONTENTS, ALLOC, LOAD, READONLY, DATA
  8 .gnu.version_r 00000040  00000000000005d8  00000000000005d8  000005d8  2**3
                  CONTENTS, ALLOC, LOAD, READONLY, DATA
  9 .rela.dyn     000000c0  0000000000000618  0000000000000618  00000618  2**3
                  CONTENTS, ALLOC, LOAD, READONLY, DATA
 10 .rela.plt     00000090  00000000000006d8  00000000000006d8  000006d8  2**3
                  CONTENTS, ALLOC, LOAD, READONLY, DATA
 11 .init         0000001b  0000000000001000  0000000000001000  00001000  2**2
                  CONTENTS, ALLOC, LOAD, READONLY, CODE
 12 .plt          00000070  0000000000001020  0000000000001020  00001020  2**4
                  CONTENTS, ALLOC, LOAD, READONLY, CODE
 13 .plt.got      00000010  0000000000001090  0000000000001090  00001090  2**4
                  CONTENTS, ALLOC, LOAD, READONLY, CODE
 14 .plt.sec      00000060  00000000000010a0  00000000000010a0  000010a0  2**4
                  CONTENTS, ALLOC, LOAD, READONLY, CODE
 15 .text         00000273  0000000000001100  0000000000001100  00001100  2**4
                  CONTENTS, ALLOC, LOAD, READONLY, CODE
 16 .fini         0000000d  0000000000001374  0000000000001374  00001374  2**2
                  CONTENTS, ALLOC, LOAD, READONLY, CODE
 17 .rodata       00000057  0000000000002000  0000000000002000  00002000  2**3
                  CONTENTS, ALLOC, LOAD, READONLY, DATA
 18 .eh_frame_hdr 0000003c  0000000000002058  0000000000002058  00002058  2**2
                  CONTENTS, ALLOC, LOAD, READONLY, DATA
 19 .eh_frame     000000d0  0000000000002098  0000000000002098  00002098  2**3
                  CONTENTS, ALLOC, LOAD, READONLY, DATA
 20 .init_array   00000008  0000000000003d90  0000000000003d90  00002d90  2**3
                  CONTENTS, ALLOC, LOAD, DATA
 21 .fini_array   00000008  0000000000003d98  0000000000003d98  00002d98  2**3
                  CONTENTS, ALLOC, LOAD, DATA
 22 .dynamic      000001f0  0000000000003da0  0000000000003da0  00002da0  2**3
                  CONTENTS, ALLOC, LOAD, DATA
 23 .got          00000070  0000000000003f90  0000000000003f90  00002f90  2**3
                  CONTENTS, ALLOC, LOAD, DATA
 24 .data         00000010  0000000000004000  0000000000004000  00003000  2**3
                  CONTENTS, ALLOC, LOAD, DATA
 25 .bss          00000008  0000000000004010  0000000000004010  00003010  2**0
                  ALLOC
 26 .comment      0000002d  0000000000000000  0000000000000000  00003010  2**0
                  CONTENTS, READONLY
 27 .debug_aranges 00000030  0000000000000000  0000000000000000  0000303d  2**0
                  CONTENTS, READONLY, DEBUGGING, OCTETS
 28 .debug_info   000001b8  0000000000000000  0000000000000000  0000306d  2**0
                  CONTENTS, READONLY, DEBUGGING, OCTETS
 29 .debug_abbrev 00000112  0000000000000000  0000000000000000  00003225  2**0
                  CONTENTS, READONLY, DEBUGGING, OCTETS
 30 .debug_line   000000bb  0000000000000000  0000000000000000  00003337  2**0
                  CONTENTS, READONLY, DEBUGGING, OCTETS
 31 .debug_str    00000122  0000000000000000  0000000000000000  000033f2  2**0
                  CONTENTS, READONLY, DEBUGGING, OCTETS
 32 .debug_line_str 000000fb  0000000000000000  0000000000000000  00003514  2**0
                  CONTENTS, READONLY, DEBUGGING, OCTETS
SYMBOL TABLE:
0000000000000000 l    df *ABS*	0000000000000000              Scrt1.o
000000000000038c l     O .note.ABI-tag	0000000000000020              __abi_tag
0000000000000000 l    df *ABS*	0000000000000000              crtstuff.c
0000000000001130 l     F .text	0000000000000000              deregister_tm_clones
0000000000001160 l     F .text	0000000000000000              register_tm_clones
00000000000011a0 l     F .text	0000000000000000              __do_global_dtors_aux
0000000000004010 l     O .bss	0000000000000001              completed.0
0000000000003d98 l     O .fini_array	0000000000000000              __do_global_dtors_aux_fini_array_entry
00000000000011e0 l     F .text	0000000000000000              frame_dummy
0000000000003d90 l     O .init_array	0000000000000000              __frame_dummy_init_array_entry
0000000000000000 l    df *ABS*	0000000000000000              shellcode_INJECTION_simulation.c
0000000000000000 l    df *ABS*	0000000000000000              crtstuff.c
0000000000002164 l     O .eh_frame	0000000000000000              __FRAME_END__
0000000000000000 l    df *ABS*	0000000000000000              
0000000000003da0 l     O .dynamic	0000000000000000              _DYNAMIC
0000000000002058 l       .eh_frame_hdr	0000000000000000              __GNU_EH_FRAME_HDR
0000000000003f90 l     O .got	0000000000000000              _GLOBAL_OFFSET_TABLE_
0000000000000000       F *UND*	0000000000000000              __libc_start_main@GLIBC_2.34
00000000000011e9 g     F .text	0000000000000153              execute_shellcode
0000000000000000  w      *UND*	0000000000000000              _ITM_deregisterTMCloneTable
0000000000004000  w      .data	0000000000000000              data_start
0000000000000000       F *UND*	0000000000000000              puts@GLIBC_2.2.5
0000000000004010 g       .data	0000000000000000              _edata
0000000000001374 g     F .fini	0000000000000000              .hidden _fini
0000000000000000       F *UND*	0000000000000000              __stack_chk_fail@GLIBC_2.4
0000000000000000       F *UND*	0000000000000000              mmap@GLIBC_2.2.5
0000000000004000 g       .data	0000000000000000              __data_start
0000000000000000  w      *UND*	0000000000000000              __gmon_start__
0000000000004008 g     O .data	0000000000000000              .hidden __dso_handle
0000000000002000 g     O .rodata	0000000000000004              _IO_stdin_used
0000000000004018 g       .bss	0000000000000000              _end
0000000000001100 g     F .text	0000000000000026              _start
0000000000004010 g       .bss	0000000000000000              __bss_start
0000000000000000       F *UND*	0000000000000000              munmap@GLIBC_2.2.5
000000000000133c g     F .text	0000000000000037              main
0000000000000000       F *UND*	0000000000000000              mprotect@GLIBC_2.2.5
0000000000000000       F *UND*	0000000000000000              perror@GLIBC_2.2.5
0000000000004010 g     O .data	0000000000000000              .hidden __TMC_END__
0000000000000000  w      *UND*	0000000000000000              _ITM_registerTMCloneTable
0000000000000000  w    F *UND*	0000000000000000              __cxa_finalize@GLIBC_2.2.5
0000000000001000 g     F .init	0000000000000000              .hidden _init


Contents of section .interp:
 0318 2f6c6962 36342f6c 642d6c69 6e75782d  /lib64/ld-linux-
 0328 7838362d 36342e73 6f2e3200           x86-64.so.2.    
Contents of section .note.gnu.property:
 0338 04000000 20000000 05000000 474e5500  .... .......GNU.
 0348 020000c0 04000000 03000000 00000000  ................
 0358 028000c0 04000000 01000000 00000000  ................
Contents of section .note.gnu.build-id:
 0368 04000000 14000000 03000000 474e5500  ............GNU.
 0378 57e1e599 481762cb 41c1e9f3 34f0855d  W...H.b.A...4..]
 0388 3d132567                             =.%g            
Contents of section .note.ABI-tag:
 038c 04000000 10000000 01000000 474e5500  ............GNU.
 039c 00000000 03000000 02000000 00000000  ................
Contents of section .gnu.hash:
 03b0 02000000 0b000000 01000000 06000000  ................
 03c0 00008100 00000000 0b000000 00000000  ................
 03d0 d165ce6d                             .e.m            
Contents of section .dynsym:
 03d8 00000000 00000000 00000000 00000000  ................
 03e8 00000000 00000000 20000000 12000000  ........ .......
 03f8 00000000 00000000 00000000 00000000  ................
 0408 7f000000 20000000 00000000 00000000  .... ...........
 0418 00000000 00000000 32000000 12000000  ........2.......
 0428 00000000 00000000 00000000 00000000  ................
 0438 3e000000 12000000 00000000 00000000  >...............
 0448 00000000 00000000 4f000000 12000000  ........O.......
 0458 00000000 00000000 00000000 00000000  ................
 0468 9b000000 20000000 00000000 00000000  .... ...........
 0478 00000000 00000000 10000000 12000000  ................
 0488 00000000 00000000 00000000 00000000  ................
 0498 17000000 12000000 00000000 00000000  ................
 04a8 00000000 00000000 37000000 12000000  ........7.......
 04b8 00000000 00000000 00000000 00000000  ................
 04c8 aa000000 20000000 00000000 00000000  .... ...........
 04d8 00000000 00000000 01000000 22000000  ............"...
 04e8 00000000 00000000 00000000 00000000  ................
Contents of section .dynstr:
 04f8 005f5f63 78615f66 696e616c 697a6500  .__cxa_finalize.
 0508 6d756e6d 6170006d 70726f74 65637400  munmap.mprotect.
 0518 5f5f6c69 62635f73 74617274 5f6d6169  __libc_start_mai
 0528 6e007075 74730070 6572726f 72005f5f  n.puts.perror.__
 0538 73746163 6b5f6368 6b5f6661 696c006d  stack_chk_fail.m
 0548 6d617000 6c696263 2e736f2e 3600474c  map.libc.so.6.GL
 0558 4942435f 322e3400 474c4942 435f322e  IBC_2.4.GLIBC_2.
 0568 322e3500 474c4942 435f322e 3334005f  2.5.GLIBC_2.34._
 0578 49544d5f 64657265 67697374 6572544d  ITM_deregisterTM
 0588 436c6f6e 65546162 6c65005f 5f676d6f  CloneTable.__gmo
 0598 6e5f7374 6172745f 5f005f49 544d5f72  n_start__._ITM_r
 05a8 65676973 74657254 4d436c6f 6e655461  egisterTMCloneTa
 05b8 626c6500                             ble.            
Contents of section .gnu.version:
 05bc 00000200 01000300 04000300 01000300  ................
 05cc 03000300 01000300                    ........        
Contents of section .gnu.version_r:
 05d8 01000300 54000000 10000000 00000000  ....T...........
 05e8 1469690d 00000400 5e000000 10000000  .ii.....^.......
 05f8 751a6909 00000300 68000000 10000000  u.i.....h.......
 0608 b4919606 00000200 74000000 00000000  ........t.......
Contents of section .rela.dyn:
 0618 903d0000 00000000 08000000 00000000  .=..............
 0628 e0110000 00000000 983d0000 00000000  .........=......
 0638 08000000 00000000 a0110000 00000000  ................
 0648 08400000 00000000 08000000 00000000  .@..............
 0658 08400000 00000000 d83f0000 00000000  .@.......?......
 0668 06000000 01000000 00000000 00000000  ................
 0678 e03f0000 00000000 06000000 02000000  .?..............
 0688 00000000 00000000 e83f0000 00000000  .........?......
 0698 06000000 06000000 00000000 00000000  ................
 06a8 f03f0000 00000000 06000000 0a000000  .?..............
 06b8 00000000 00000000 f83f0000 00000000  .........?......
 06c8 06000000 0b000000 00000000 00000000  ................
Contents of section .rela.plt:
 06d8 a83f0000 00000000 07000000 03000000  .?..............
 06e8 00000000 00000000 b03f0000 00000000  .........?......
 06f8 07000000 04000000 00000000 00000000  ................
 0708 b83f0000 00000000 07000000 05000000  .?..............
 0718 00000000 00000000 c03f0000 00000000  .........?......
 0728 07000000 07000000 00000000 00000000  ................
 0738 c83f0000 00000000 07000000 08000000  .?..............
 0748 00000000 00000000 d03f0000 00000000  .........?......
 0758 07000000 09000000 00000000 00000000  ................
Contents of section .init:
 1000 f30f1efa 4883ec08 488b05d9 2f000048  ....H...H.../..H
 1010 85c07402 ffd04883 c408c3             ..t...H....     
Contents of section .plt:
 1020 ff35722f 0000f2ff 25732f00 000f1f00  .5r/....%s/.....
 1030 f30f1efa 68000000 00f2e9e1 ffffff90  ....h...........
 1040 f30f1efa 68010000 00f2e9d1 ffffff90  ....h...........
 1050 f30f1efa 68020000 00f2e9c1 ffffff90  ....h...........
 1060 f30f1efa 68030000 00f2e9b1 ffffff90  ....h...........
 1070 f30f1efa 68040000 00f2e9a1 ffffff90  ....h...........
 1080 f30f1efa 68050000 00f2e991 ffffff90  ....h...........
Contents of section .plt.got:
 1090 f30f1efa f2ff255d 2f00000f 1f440000  ......%]/....D..
Contents of section .plt.sec:
 10a0 f30f1efa f2ff25fd 2e00000f 1f440000  ......%......D..
 10b0 f30f1efa f2ff25f5 2e00000f 1f440000  ......%......D..
 10c0 f30f1efa f2ff25ed 2e00000f 1f440000  ......%......D..
 10d0 f30f1efa f2ff25e5 2e00000f 1f440000  ......%......D..
 10e0 f30f1efa f2ff25dd 2e00000f 1f440000  ......%......D..
 10f0 f30f1efa f2ff25d5 2e00000f 1f440000  ......%......D..
Contents of section .text:
 1100 f30f1efa 31ed4989 d15e4889 e24883e4  ....1.I..^H..H..
 1110 f0505445 31c031c9 488d3d1d 020000ff  .PTE1.1.H.=.....
 1120 15b32e00 00f4662e 0f1f8400 00000000  ......f.........
 1130 488d3dd9 2e000048 8d05d22e 00004839  H.=....H......H9
 1140 f8741548 8b05962e 00004885 c07409ff  .t.H......H..t..
 1150 e00f1f80 00000000 c30f1f80 00000000  ................
 1160 488d3da9 2e000048 8d35a22e 00004829  H.=....H.5....H)
 1170 fe4889f0 48c1ee3f 48c1f803 4801c648  .H..H..?H...H..H
 1180 d1fe7414 488b0565 2e000048 85c07408  ..t.H..e...H..t.
 1190 ffe0660f 1f440000 c30f1f80 00000000  ..f..D..........
 11a0 f30f1efa 803d652e 00000075 2b554883  .....=e....u+UH.
 11b0 3d422e00 00004889 e5740c48 8b3d462e  =B....H..t.H.=F.
 11c0 0000e8c9 feffffe8 64ffffff c6053d2e  ........d.....=.
 11d0 0000015d c30f1f00 c30f1f80 00000000  ...]............
 11e0 f30f1efa e977ffff fff30f1e fa554889  .....w.......UH.
 11f0 e5534883 ec486448 8b042528 00000048  .SH..HdH..%(...H
 1200 8945e831 c048b848 31c04831 ff483148  .E.1.H.H1.H1.H1H
 1210 baf64831 d248bf2f 2f488945 c0488955  ..H1.H.//H.E.H.U
 1220 c848b862 696e2f73 6848c148 baef0857  .H.bin/shH.H...W
 1230 4889e7b0 3b488945 d0488955 d866c745  H...;H.E.H.U.f.E
 1240 e00f05c6 45e20041 b9000000 0041b8ff  ....E..A.....A..
 1250 ffffffb9 22000000 ba030000 00be2300  ....".........#.
 1260 0000bf00 000000e8 54feffff 488945b0  ........T...H.E.
 1270 48837db0 ff751448 8d058a0d 00004889  H.}..u.H......H.
 1280 c7e86afe ffffe997 00000048 8b45b048  ..j........H.E.H
 1290 8b4dc048 8b5dc848 89084889 5808488b  .M.H.].H..H.X.H.
 12a0 4dd0488b 5dd84889 48104889 58180fb7  M.H.].H.H.H.X...
 12b0 55e06689 50200fb6 55e28850 22488b45  U.f.P ..U..P"H.E
 12c0 b0ba0500 0000be23 00000048 89c7e80d  .......#...H....
 12d0 feffff83 f8ff7511 488d052e 0d000048  ......u.H......H
 12e0 89c7e809 feffffeb 39488b45 b0488945  ........9H.E.H.E
 12f0 b8488b55 b8b80000 0000ffd2 488b45b0  .H.U........H.E.
 1300 be230000 004889c7 e8c3fdff ff83f8ff  .#...H..........
 1310 7510488d 05fd0c00 004889c7 e8cffdff  u.H......H......
 1320 ff90488b 45e86448 2b042528 00000074  ..H.E.dH+.%(...t
 1330 05e87afd ffff488b 5df8c9c3 f30f1efa  ..z...H.].......
 1340 554889e5 488d05d2 0c000048 89c7e84d  UH..H......H...M
 1350 fdffffb8 00000000 e88cfeff ff488d05  .............H..
 1360 d40c0000 4889c7e8 34fdffff b8000000  ....H...4.......
 1370 005dc3                               .].             
Contents of section .fini:
 1374 f30f1efa 4883ec08 4883c408 c3        ....H...H....   
Contents of section .rodata:
 2000 01000200 00000000 6d6d6170 006d7072  ........mmap.mpr
 2010 6f746563 74006d75 6e6d6170 00457865  otect.munmap.Exe
 2020 63757469 6e672073 68656c6c 636f6465  cuting shellcode
 2030 2e2e2e00 00000000 5368656c 6c636f64  ........Shellcod
 2040 65206578 65637574 696f6e20 636f6d70  e execution comp
 2050 6c657465 642e00                      leted..         
Contents of section .eh_frame_hdr:
 2058 011b033b 3c000000 06000000 c8efffff  ...;<...........
 2068 70000000 38f0ffff 98000000 48f0ffff  p...8.......H...
 2078 b0000000 a8f0ffff 58000000 91f1ffff  ........X.......
 2088 c8000000 e4f2ffff ec000000           ............    
Contents of section .eh_frame:
 2098 14000000 00000000 017a5200 01781001  .........zR..x..
 20a8 1b0c0708 90010000 14000000 1c000000  ................
 20b8 48f0ffff 26000000 00440710 00000000  H...&....D......
 20c8 24000000 34000000 50efffff 70000000  $...4...P...p...
 20d8 000e1046 0e184a0f 0b770880 003f1a3a  ...F..J..w...?.:
 20e8 2a332422 00000000 14000000 5c000000  *3$"........\...
 20f8 98efffff 10000000 00000000 00000000  ................
 2108 14000000 74000000 90efffff 60000000  ....t.......`...
 2118 00000000 00000000 20000000 8c000000  ........ .......
 2128 c1f0ffff 53010000 00450e10 8602430d  ....S....E....C.
 2138 06458303 0345010c 07080000 1c000000  .E...E..........
 2148 b0000000 f0f1ffff 37000000 00450e10  ........7....E..
 2158 8602430d 066e0c07 08000000 00000000  ..C..n..........
Contents of section .init_array:
 3d90 e0110000 00000000                    ........        
Contents of section .fini_array:
 3d98 a0110000 00000000                    ........        
Contents of section .dynamic:
 3da0 01000000 00000000 54000000 00000000  ........T.......
 3db0 0c000000 00000000 00100000 00000000  ................
 3dc0 0d000000 00000000 74130000 00000000  ........t.......
 3dd0 19000000 00000000 903d0000 00000000  .........=......
 3de0 1b000000 00000000 08000000 00000000  ................
 3df0 1a000000 00000000 983d0000 00000000  .........=......
 3e00 1c000000 00000000 08000000 00000000  ................
 3e10 f5feff6f 00000000 b0030000 00000000  ...o............
 3e20 05000000 00000000 f8040000 00000000  ................
 3e30 06000000 00000000 d8030000 00000000  ................
 3e40 0a000000 00000000 c4000000 00000000  ................
 3e50 0b000000 00000000 18000000 00000000  ................
 3e60 15000000 00000000 00000000 00000000  ................
 3e70 03000000 00000000 903f0000 00000000  .........?......
 3e80 02000000 00000000 90000000 00000000  ................
 3e90 14000000 00000000 07000000 00000000  ................
 3ea0 17000000 00000000 d8060000 00000000  ................
 3eb0 07000000 00000000 18060000 00000000  ................
 3ec0 08000000 00000000 c0000000 00000000  ................
 3ed0 09000000 00000000 18000000 00000000  ................
 3ee0 1e000000 00000000 08000000 00000000  ................
 3ef0 fbffff6f 00000000 01000008 00000000  ...o............
 3f00 feffff6f 00000000 d8050000 00000000  ...o............
 3f10 ffffff6f 00000000 01000000 00000000  ...o............
 3f20 f0ffff6f 00000000 bc050000 00000000  ...o............
 3f30 f9ffff6f 00000000 03000000 00000000  ...o............
 3f40 00000000 00000000 00000000 00000000  ................
 3f50 00000000 00000000 00000000 00000000  ................
 3f60 00000000 00000000 00000000 00000000  ................
 3f70 00000000 00000000 00000000 00000000  ................
 3f80 00000000 00000000 00000000 00000000  ................
Contents of section .got:
 3f90 a03d0000 00000000 00000000 00000000  .=..............
 3fa0 00000000 00000000 30100000 00000000  ........0.......
 3fb0 40100000 00000000 50100000 00000000  @.......P.......
 3fc0 60100000 00000000 70100000 00000000  `.......p.......
 3fd0 80100000 00000000 00000000 00000000  ................
 3fe0 00000000 00000000 00000000 00000000  ................
 3ff0 00000000 00000000 00000000 00000000  ................
Contents of section .data:
 4000 00000000 00000000 08400000 00000000  .........@......
Contents of section .comment:
 0000 4743433a 20285562 756e7475 2031312e  GCC: (Ubuntu 11.
 0010 332e302d 31756275 6e747531 7e32322e  3.0-1ubuntu1~22.
 0020 30342e31 29203131 2e332e30 00        04.1) 11.3.0.   
Contents of section .debug_aranges:
 0000 2c000000 02000000 00000800 00000000  ,...............
 0010 e9110000 00000000 8a010000 00000000  ................
 0020 00000000 00000000 00000000 00000000  ................
Contents of section .debug_info:
 0000 b4010000 05000108 00000000 071d0000  ................
 0010 001d1a00 00000000 0000e911 00000000  ................
 0020 00008a01 00000000 00000000 00000500  ................
 0030 00000002 d1173a00 00000208 07ab0000  ......:.........
 0040 00020407 b0000000 08080201 08070000  ................
 0050 00020207 00010000 02010609 00000002  ................
 0060 02051801 00000904 05696e74 00020805  .........int....
 0070 de000000 05150000 00039819 6d000000  ............m...
 0080 02010610 0000000a 80000000 03870000  ................
 0090 0004c600 00004c0c 66000000 ab000000  ......L.f.......
 00a0 01480000 00012e00 00000004 bd000000  .H..............
 00b0 510c6600 0000ca00 00000148 00000001  Q.f........H....
 00c0 2e000000 01660000 00000bd2 00000005  .....f..........
 00d0 24030ddd 00000001 8c000000 0004cd00  $...............
 00e0 0000390e 48000000 0b010000 01480000  ..9.H........H..
 00f0 00012e00 00000166 00000001 66000000  .......f....f...
 0100 01660000 00017400 0000000c d9000000  .f....t.........
 0110 01270566 0000003c 13000000 00000037  .'.f...<.......7
 0120 00000000 00000001 9c0dee00 00000107  ................
 0130 06e91100 00000000 00530100 00000000  .........S......
 0140 00019c95 01000006 f6000000 0a139501  ................
 0150 00000391 b07f0e6d 656d0001 0d0b4800  .......mem....H.
 0160 00000391 a07f0fe7 00000006 00480000  .............H..
 0170 00850100 00014800 000001a5 01000001  ......H.........
 0180 3a000000 00061301 00001d0c b2010000  :...............
 0190 0391a87f 00104a00 0000a501 0000113a  ......J........:
 01a0 00000022 0003aa01 00001213 b2010000  ..."............
 01b0 140003ab 01000000                    ........        
Contents of section .debug_abbrev:
 0000 01050049 13000002 24000b0b 3e0b030e  ...I....$...>...
 0010 0000030f 000b2108 49130000 042e013f  ......!.I......?
 0020 19030e3a 21043b0b 390b2719 49133c19  ...:!.;.9.'.I.<.
 0030 01130000 05160003 0e3a0b3b 0b390b49  .........:.;.9.I
 0040 13000006 3400030e 3a21013b 0b390b49  ....4...:!.;.9.I
 0050 13021800 00071101 250e130b 031f1b1f  ........%.......
 0060 11011207 10170000 080f000b 0b000009  ................
 0070 24000b0b 3e0b0308 00000a26 00491300  $...>......&.I..
 0080 000b2e01 3f19030e 3a0b3b05 390b2719  ....?...:.;.9.'.
 0090 3c190113 00000c2e 003f1903 0e3a0b3b  <........?...:.;
 00a0 0b390b49 13110112 0740187c 1900000d  .9.I.....@.|....
 00b0 2e013f19 030e3a0b 3b0b390b 11011207  ..?...:.;.9.....
 00c0 40187c19 01130000 0e340003 083a0b3b  @.|......4...:.;
 00d0 0b390b49 13021800 000f2e01 3f19030e  .9.I........?...
 00e0 3a0b3b0b 27194913 3c190113 00001001  :.;.'.I.<.......
 00f0 01491301 13000011 21004913 2f0b0000  .I......!.I./...
 0100 12260000 00131501 01130000 14180000  .&..............
 0110 0000                                 ..              
Contents of section .debug_line:
 0000 b7000000 05000800 57000000 010101fb  ........W.......
 0010 0e0d0001 01010100 00000100 00010101  ................
 0020 1f060000 00000000 00005500 00007e00  ..........U...~.
 0030 0000a100 0000c300 00000201 1f020f07  ................
 0040 34000000 01340000 0000d000 000002d9  4....4..........
 0050 00000003 e1000000 04e80000 0005f000  ................
 0060 00000005 1a000902 e9110000 00000000  ................
 0070 18c80513 e7051102 42150508 02291305  ........B....)..
 0080 0975e505 055c0509 02321505 08085805  .u...\...2....X.
 0090 0959e505 0c320505 830509af 05080812  .Y...2..........
 00a0 050959e5 05012205 0c089205 0583e59f  ..Y...".........
 00b0 050ce605 01590202 000101             .....Y.....     
Contents of section .debug_str:
 0000 73697a65 5f740075 6e736967 6e656420  size_t.unsigned 
 0010 63686172 005f5f6f 66665f74 00474e55  char.__off_t.GNU
 0020 20433137 2031312e 332e3020 2d6d7475   C17 11.3.0 -mtu
 0030 6e653d67 656e6572 6963202d 6d617263  ne=generic -marc
 0040 683d7838 362d3634 202d6720 2d666173  h=x86-64 -g -fas
 0050 796e6368 726f6e6f 75732d75 6e77696e  ynchronous-unwin
 0060 642d7461 626c6573 202d6673 7461636b  d-tables -fstack
 0070 2d70726f 74656374 6f722d73 74726f6e  -protector-stron
 0080 67202d66 73746163 6b2d636c 6173682d  g -fstack-clash-
 0090 70726f74 65637469 6f6e202d 6663662d  protection -fcf-
 00a0 70726f74 65637469 6f6e006c 6f6e6720  protection.long 
 00b0 756e7369 676e6564 20696e74 006d7072  unsigned int.mpr
 00c0 6f746563 74006d75 6e6d6170 006d6d61  otect.munmap.mma
 00d0 70007065 72726f72 006d6169 6e006c6f  p.perror.main.lo
 00e0 6e672069 6e74006d 656d6370 79006578  ng int.memcpy.ex
 00f0 65637574 655f7368 656c6c63 6f646500  ecute_shellcode.
 0100 73686f72 7420756e 7369676e 65642069  short unsigned i
 0110 6e740066 756e6300 73686f72 7420696e  nt.func.short in
 0120 7400                                 t.              
Contents of section .debug_line_str:
 0000 2f686f6d 652f6168 6d65642f 43495436  /home/ahmed/CIT6
 0010 32322d4f 535f5365 63002f68 6f6d652f  22-OS_Sec./home/
 0020 61686d65 642f4349 54363232 2d4f535f  ahmed/CIT622-OS_
 0030 5365632f 7368656c 6c636f64 655f494e  Sec/shellcode_IN
 0040 4a454354 494f4e5f 73696d75 6c617469  JECTION_simulati
 0050 6f6e2e63 002f7573 722f6c69 622f6763  on.c./usr/lib/gc
 0060 632f7838 365f3634 2d6c696e 75782d67  c/x86_64-linux-g
 0070 6e752f31 312f696e 636c7564 65002f75  nu/11/include./u
 0080 73722f69 6e636c75 64652f78 38365f36  sr/include/x86_6
 0090 342d6c69 6e75782d 676e752f 62697473  4-linux-gnu/bits
 00a0 002f7573 722f696e 636c7564 652f7838  ./usr/include/x8
 00b0 365f3634 2d6c696e 75782d67 6e752f73  6_64-linux-gnu/s
 00c0 7973002f 7573722f 696e636c 75646500  ys./usr/include.
 00d0 73746464 65662e68 00747970 65732e68  stddef.h.types.h
 00e0 006d6d61 6e2e6800 73746469 6f2e6800  .mman.h.stdio.h.
 00f0 3c627569 6c742d69 6e3e00             <built-in>.     

Disassembly of section .init:

0000000000001000 <_init>:
    1000:	f3 0f 1e fa          	endbr64 
    1004:	48 83 ec 08          	sub    $0x8,%rsp
    1008:	48 8b 05 d9 2f 00 00 	mov    0x2fd9(%rip),%rax        # 3fe8 <__gmon_start__@Base>
    100f:	48 85 c0             	test   %rax,%rax
    1012:	74 02                	je     1016 <_init+0x16>
    1014:	ff d0                	call   *%rax
    1016:	48 83 c4 08          	add    $0x8,%rsp
    101a:	c3                   	ret    

Disassembly of section .plt:

0000000000001020 <.plt>:
    1020:	ff 35 72 2f 00 00    	push   0x2f72(%rip)        # 3f98 <_GLOBAL_OFFSET_TABLE_+0x8>
    1026:	f2 ff 25 73 2f 00 00 	bnd jmp *0x2f73(%rip)        # 3fa0 <_GLOBAL_OFFSET_TABLE_+0x10>
    102d:	0f 1f 00             	nopl   (%rax)
    1030:	f3 0f 1e fa          	endbr64 
    1034:	68 00 00 00 00       	push   $0x0
    1039:	f2 e9 e1 ff ff ff    	bnd jmp 1020 <_init+0x20>
    103f:	90                   	nop
    1040:	f3 0f 1e fa          	endbr64 
    1044:	68 01 00 00 00       	push   $0x1
    1049:	f2 e9 d1 ff ff ff    	bnd jmp 1020 <_init+0x20>
    104f:	90                   	nop
    1050:	f3 0f 1e fa          	endbr64 
    1054:	68 02 00 00 00       	push   $0x2
    1059:	f2 e9 c1 ff ff ff    	bnd jmp 1020 <_init+0x20>
    105f:	90                   	nop
    1060:	f3 0f 1e fa          	endbr64 
    1064:	68 03 00 00 00       	push   $0x3
    1069:	f2 e9 b1 ff ff ff    	bnd jmp 1020 <_init+0x20>
    106f:	90                   	nop
    1070:	f3 0f 1e fa          	endbr64 
    1074:	68 04 00 00 00       	push   $0x4
    1079:	f2 e9 a1 ff ff ff    	bnd jmp 1020 <_init+0x20>
    107f:	90                   	nop
    1080:	f3 0f 1e fa          	endbr64 
    1084:	68 05 00 00 00       	push   $0x5
    1089:	f2 e9 91 ff ff ff    	bnd jmp 1020 <_init+0x20>
    108f:	90                   	nop

Disassembly of section .plt.got:

0000000000001090 <__cxa_finalize@plt>:
    1090:	f3 0f 1e fa          	endbr64 
    1094:	f2 ff 25 5d 2f 00 00 	bnd jmp *0x2f5d(%rip)        # 3ff8 <__cxa_finalize@GLIBC_2.2.5>
    109b:	0f 1f 44 00 00       	nopl   0x0(%rax,%rax,1)

Disassembly of section .plt.sec:

00000000000010a0 <puts@plt>:
    10a0:	f3 0f 1e fa          	endbr64 
    10a4:	f2 ff 25 fd 2e 00 00 	bnd jmp *0x2efd(%rip)        # 3fa8 <puts@GLIBC_2.2.5>
    10ab:	0f 1f 44 00 00       	nopl   0x0(%rax,%rax,1)

00000000000010b0 <__stack_chk_fail@plt>:
    10b0:	f3 0f 1e fa          	endbr64 
    10b4:	f2 ff 25 f5 2e 00 00 	bnd jmp *0x2ef5(%rip)        # 3fb0 <__stack_chk_fail@GLIBC_2.4>
    10bb:	0f 1f 44 00 00       	nopl   0x0(%rax,%rax,1)

00000000000010c0 <mmap@plt>:
    10c0:	f3 0f 1e fa          	endbr64 
    10c4:	f2 ff 25 ed 2e 00 00 	bnd jmp *0x2eed(%rip)        # 3fb8 <mmap@GLIBC_2.2.5>
    10cb:	0f 1f 44 00 00       	nopl   0x0(%rax,%rax,1)

00000000000010d0 <munmap@plt>:
    10d0:	f3 0f 1e fa          	endbr64 
    10d4:	f2 ff 25 e5 2e 00 00 	bnd jmp *0x2ee5(%rip)        # 3fc0 <munmap@GLIBC_2.2.5>
    10db:	0f 1f 44 00 00       	nopl   0x0(%rax,%rax,1)

00000000000010e0 <mprotect@plt>:
    10e0:	f3 0f 1e fa          	endbr64 
    10e4:	f2 ff 25 dd 2e 00 00 	bnd jmp *0x2edd(%rip)        # 3fc8 <mprotect@GLIBC_2.2.5>
    10eb:	0f 1f 44 00 00       	nopl   0x0(%rax,%rax,1)

00000000000010f0 <perror@plt>:
    10f0:	f3 0f 1e fa          	endbr64 
    10f4:	f2 ff 25 d5 2e 00 00 	bnd jmp *0x2ed5(%rip)        # 3fd0 <perror@GLIBC_2.2.5>
    10fb:	0f 1f 44 00 00       	nopl   0x0(%rax,%rax,1)

Disassembly of section .text:

0000000000001100 <_start>:
    1100:	f3 0f 1e fa          	endbr64 
    1104:	31 ed                	xor    %ebp,%ebp
    1106:	49 89 d1             	mov    %rdx,%r9
    1109:	5e                   	pop    %rsi
    110a:	48 89 e2             	mov    %rsp,%rdx
    110d:	48 83 e4 f0          	and    $0xfffffffffffffff0,%rsp
    1111:	50                   	push   %rax
    1112:	54                   	push   %rsp
    1113:	45 31 c0             	xor    %r8d,%r8d
    1116:	31 c9                	xor    %ecx,%ecx
    1118:	48 8d 3d 1d 02 00 00 	lea    0x21d(%rip),%rdi        # 133c <main>
    111f:	ff 15 b3 2e 00 00    	call   *0x2eb3(%rip)        # 3fd8 <__libc_start_main@GLIBC_2.34>
    1125:	f4                   	hlt    
    1126:	66 2e 0f 1f 84 00 00 	cs nopw 0x0(%rax,%rax,1)
    112d:	00 00 00 

0000000000001130 <deregister_tm_clones>:
    1130:	48 8d 3d d9 2e 00 00 	lea    0x2ed9(%rip),%rdi        # 4010 <__TMC_END__>
    1137:	48 8d 05 d2 2e 00 00 	lea    0x2ed2(%rip),%rax        # 4010 <__TMC_END__>
    113e:	48 39 f8             	cmp    %rdi,%rax
    1141:	74 15                	je     1158 <deregister_tm_clones+0x28>
    1143:	48 8b 05 96 2e 00 00 	mov    0x2e96(%rip),%rax        # 3fe0 <_ITM_deregisterTMCloneTable@Base>
    114a:	48 85 c0             	test   %rax,%rax
    114d:	74 09                	je     1158 <deregister_tm_clones+0x28>
    114f:	ff e0                	jmp    *%rax
    1151:	0f 1f 80 00 00 00 00 	nopl   0x0(%rax)
    1158:	c3                   	ret    
    1159:	0f 1f 80 00 00 00 00 	nopl   0x0(%rax)

0000000000001160 <register_tm_clones>:
    1160:	48 8d 3d a9 2e 00 00 	lea    0x2ea9(%rip),%rdi        # 4010 <__TMC_END__>
    1167:	48 8d 35 a2 2e 00 00 	lea    0x2ea2(%rip),%rsi        # 4010 <__TMC_END__>
    116e:	48 29 fe             	sub    %rdi,%rsi
    1171:	48 89 f0             	mov    %rsi,%rax
    1174:	48 c1 ee 3f          	shr    $0x3f,%rsi
    1178:	48 c1 f8 03          	sar    $0x3,%rax
    117c:	48 01 c6             	add    %rax,%rsi
    117f:	48 d1 fe             	sar    %rsi
    1182:	74 14                	je     1198 <register_tm_clones+0x38>
    1184:	48 8b 05 65 2e 00 00 	mov    0x2e65(%rip),%rax        # 3ff0 <_ITM_registerTMCloneTable@Base>
    118b:	48 85 c0             	test   %rax,%rax
    118e:	74 08                	je     1198 <register_tm_clones+0x38>
    1190:	ff e0                	jmp    *%rax
    1192:	66 0f 1f 44 00 00    	nopw   0x0(%rax,%rax,1)
    1198:	c3                   	ret    
    1199:	0f 1f 80 00 00 00 00 	nopl   0x0(%rax)

00000000000011a0 <__do_global_dtors_aux>:
    11a0:	f3 0f 1e fa          	endbr64 
    11a4:	80 3d 65 2e 00 00 00 	cmpb   $0x0,0x2e65(%rip)        # 4010 <__TMC_END__>
    11ab:	75 2b                	jne    11d8 <__do_global_dtors_aux+0x38>
    11ad:	55                   	push   %rbp
    11ae:	48 83 3d 42 2e 00 00 	cmpq   $0x0,0x2e42(%rip)        # 3ff8 <__cxa_finalize@GLIBC_2.2.5>
    11b5:	00 
    11b6:	48 89 e5             	mov    %rsp,%rbp
    11b9:	74 0c                	je     11c7 <__do_global_dtors_aux+0x27>
    11bb:	48 8b 3d 46 2e 00 00 	mov    0x2e46(%rip),%rdi        # 4008 <__dso_handle>
    11c2:	e8 c9 fe ff ff       	call   1090 <__cxa_finalize@plt>
    11c7:	e8 64 ff ff ff       	call   1130 <deregister_tm_clones>
    11cc:	c6 05 3d 2e 00 00 01 	movb   $0x1,0x2e3d(%rip)        # 4010 <__TMC_END__>
    11d3:	5d                   	pop    %rbp
    11d4:	c3                   	ret    
    11d5:	0f 1f 00             	nopl   (%rax)
    11d8:	c3                   	ret    
    11d9:	0f 1f 80 00 00 00 00 	nopl   0x0(%rax)

00000000000011e0 <frame_dummy>:
    11e0:	f3 0f 1e fa          	endbr64 
    11e4:	e9 77 ff ff ff       	jmp    1160 <register_tm_clones>

00000000000011e9 <execute_shellcode>:
    11e9:	f3 0f 1e fa          	endbr64 
    11ed:	55                   	push   %rbp
    11ee:	48 89 e5             	mov    %rsp,%rbp
    11f1:	53                   	push   %rbx
    11f2:	48 83 ec 48          	sub    $0x48,%rsp
    11f6:	64 48 8b 04 25 28 00 	mov    %fs:0x28,%rax
    11fd:	00 00 
    11ff:	48 89 45 e8          	mov    %rax,-0x18(%rbp)
    1203:	31 c0                	xor    %eax,%eax
    1205:	48 b8 48 31 c0 48 31 	movabs $0x3148ff3148c03148,%rax
    120c:	ff 48 31 
    120f:	48 ba f6 48 31 d2 48 	movabs $0x2f2fbf48d23148f6,%rdx
    1216:	bf 2f 2f 
    1219:	48 89 45 c0          	mov    %rax,-0x40(%rbp)
    121d:	48 89 55 c8          	mov    %rdx,-0x38(%rbp)
    1221:	48 b8 62 69 6e 2f 73 	movabs $0xc14868732f6e6962,%rax
    1228:	68 48 c1 
    122b:	48 ba ef 08 57 48 89 	movabs $0x3bb0e789485708ef,%rdx
    1232:	e7 b0 3b 
    1235:	48 89 45 d0          	mov    %rax,-0x30(%rbp)
    1239:	48 89 55 d8          	mov    %rdx,-0x28(%rbp)
    123d:	66 c7 45 e0 0f 05    	movw   $0x50f,-0x20(%rbp)
    1243:	c6 45 e2 00          	movb   $0x0,-0x1e(%rbp)
    1247:	41 b9 00 00 00 00    	mov    $0x0,%r9d
    124d:	41 b8 ff ff ff ff    	mov    $0xffffffff,%r8d
    1253:	b9 22 00 00 00       	mov    $0x22,%ecx
    1258:	ba 03 00 00 00       	mov    $0x3,%edx
    125d:	be 23 00 00 00       	mov    $0x23,%esi
    1262:	bf 00 00 00 00       	mov    $0x0,%edi
    1267:	e8 54 fe ff ff       	call   10c0 <mmap@plt>
    126c:	48 89 45 b0          	mov    %rax,-0x50(%rbp)
    1270:	48 83 7d b0 ff       	cmpq   $0xffffffffffffffff,-0x50(%rbp)
    1275:	75 14                	jne    128b <execute_shellcode+0xa2>
    1277:	48 8d 05 8a 0d 00 00 	lea    0xd8a(%rip),%rax        # 2008 <_IO_stdin_used+0x8>
    127e:	48 89 c7             	mov    %rax,%rdi
    1281:	e8 6a fe ff ff       	call   10f0 <perror@plt>
    1286:	e9 97 00 00 00       	jmp    1322 <execute_shellcode+0x139>
    128b:	48 8b 45 b0          	mov    -0x50(%rbp),%rax
    128f:	48 8b 4d c0          	mov    -0x40(%rbp),%rcx
    1293:	48 8b 5d c8          	mov    -0x38(%rbp),%rbx
    1297:	48 89 08             	mov    %rcx,(%rax)
    129a:	48 89 58 08          	mov    %rbx,0x8(%rax)
    129e:	48 8b 4d d0          	mov    -0x30(%rbp),%rcx
    12a2:	48 8b 5d d8          	mov    -0x28(%rbp),%rbx
    12a6:	48 89 48 10          	mov    %rcx,0x10(%rax)
    12aa:	48 89 58 18          	mov    %rbx,0x18(%rax)
    12ae:	0f b7 55 e0          	movzwl -0x20(%rbp),%edx
    12b2:	66 89 50 20          	mov    %dx,0x20(%rax)
    12b6:	0f b6 55 e2          	movzbl -0x1e(%rbp),%edx
    12ba:	88 50 22             	mov    %dl,0x22(%rax)
    12bd:	48 8b 45 b0          	mov    -0x50(%rbp),%rax
    12c1:	ba 05 00 00 00       	mov    $0x5,%edx
    12c6:	be 23 00 00 00       	mov    $0x23,%esi
    12cb:	48 89 c7             	mov    %rax,%rdi
    12ce:	e8 0d fe ff ff       	call   10e0 <mprotect@plt>
    12d3:	83 f8 ff             	cmp    $0xffffffff,%eax
    12d6:	75 11                	jne    12e9 <execute_shellcode+0x100>
    12d8:	48 8d 05 2e 0d 00 00 	lea    0xd2e(%rip),%rax        # 200d <_IO_stdin_used+0xd>
    12df:	48 89 c7             	mov    %rax,%rdi
    12e2:	e8 09 fe ff ff       	call   10f0 <perror@plt>
    12e7:	eb 39                	jmp    1322 <execute_shellcode+0x139>
    12e9:	48 8b 45 b0          	mov    -0x50(%rbp),%rax
    12ed:	48 89 45 b8          	mov    %rax,-0x48(%rbp)
    12f1:	48 8b 55 b8          	mov    -0x48(%rbp),%rdx
    12f5:	b8 00 00 00 00       	mov    $0x0,%eax
    12fa:	ff d2                	call   *%rdx
    12fc:	48 8b 45 b0          	mov    -0x50(%rbp),%rax
    1300:	be 23 00 00 00       	mov    $0x23,%esi
    1305:	48 89 c7             	mov    %rax,%rdi
    1308:	e8 c3 fd ff ff       	call   10d0 <munmap@plt>
    130d:	83 f8 ff             	cmp    $0xffffffff,%eax
    1310:	75 10                	jne    1322 <execute_shellcode+0x139>
    1312:	48 8d 05 fd 0c 00 00 	lea    0xcfd(%rip),%rax        # 2016 <_IO_stdin_used+0x16>
    1319:	48 89 c7             	mov    %rax,%rdi
    131c:	e8 cf fd ff ff       	call   10f0 <perror@plt>
    1321:	90                   	nop
    1322:	48 8b 45 e8          	mov    -0x18(%rbp),%rax
    1326:	64 48 2b 04 25 28 00 	sub    %fs:0x28,%rax
    132d:	00 00 
    132f:	74 05                	je     1336 <execute_shellcode+0x14d>
    1331:	e8 7a fd ff ff       	call   10b0 <__stack_chk_fail@plt>
    1336:	48 8b 5d f8          	mov    -0x8(%rbp),%rbx
    133a:	c9                   	leave  
    133b:	c3                   	ret    

000000000000133c <main>:
    133c:	f3 0f 1e fa          	endbr64 
    1340:	55                   	push   %rbp
    1341:	48 89 e5             	mov    %rsp,%rbp
    1344:	48 8d 05 d2 0c 00 00 	lea    0xcd2(%rip),%rax        # 201d <_IO_stdin_used+0x1d>
    134b:	48 89 c7             	mov    %rax,%rdi
    134e:	e8 4d fd ff ff       	call   10a0 <puts@plt>
    1353:	b8 00 00 00 00       	mov    $0x0,%eax
    1358:	e8 8c fe ff ff       	call   11e9 <execute_shellcode>
    135d:	48 8d 05 d4 0c 00 00 	lea    0xcd4(%rip),%rax        # 2038 <_IO_stdin_used+0x38>
    1364:	48 89 c7             	mov    %rax,%rdi
    1367:	e8 34 fd ff ff       	call   10a0 <puts@plt>
    136c:	b8 00 00 00 00       	mov    $0x0,%eax
    1371:	5d                   	pop    %rbp
    1372:	c3                   	ret    

Disassembly of section .fini:

0000000000001374 <_fini>:
    1374:	f3 0f 1e fa          	endbr64 
    1378:	48 83 ec 08          	sub    $0x8,%rsp
    137c:	48 83 c4 08          	add    $0x8,%rsp
    1380:	c3                   	ret    
